target datalayout = "e-m:e-p270:32:32-p271:32:32-p272:64:64-i64:64-i128:128-f80:128-n8:16:32:64-S128"
target triple = "x86_64-unknown-linux-gnu"

%"class.llvh::FoldingSetBase" = type { ptr, ptr, i32, i32 }

; Function Attrs: mustprogress nounwind uwtable
define linkonce_odr hidden noundef i64 @_ZN4llvh6detail19LeadingZerosCounterImLm8EE5countEmNS_12ZeroBehaviorE(i64 noundef %Val, i32 noundef %ZB) #0 comdat align 2 {
entry:
  %retval = alloca i64, align 8
  %Val.addr = alloca i64, align 8
  %ZB.addr = alloca i32, align 4
  store i64 %Val, ptr %Val.addr, align 8
  store i32 %ZB, ptr %ZB.addr, align 4
  %0 = load i32, ptr %ZB.addr, align 4
  %cmp = icmp ne i32 %0, 0
  br i1 %cmp, label %land.lhs.true, label %if.end

land.lhs.true:                                    ; preds = %entry
  %1 = load i64, ptr %Val.addr, align 8
  %cmp1 = icmp eq i64 %1, 0
  br i1 %cmp1, label %if.then, label %if.end

if.then:                                          ; preds = %land.lhs.true
  store i64 64, ptr %retval, align 8
  br label %return

if.end:                                           ; preds = %land.lhs.true, %entry
  %2 = load i64, ptr %Val.addr, align 8
  %3 = call i64 @llvm.ctlz.i64(i64 %2, i1 true)
  %cast = trunc i64 %3 to i32
  %conv = sext i32 %cast to i64
  store i64 %conv, ptr %retval, align 8
  br label %return

return:                                           ; preds = %if.end, %if.then
  %4 = load i64, ptr %retval, align 8
  ret i64 %4
}

; Function Attrs: mustprogress nounwind uwtable
define linkonce_odr hidden noundef i64 @_ZN4llvh17countLeadingZerosImEEmT_NS_12ZeroBehaviorE(i64 noundef %Val, i32 noundef %ZB) #0 comdat {
entry:
  %Val.addr = alloca i64, align 8
  %ZB.addr = alloca i32, align 4
  store i64 %Val, ptr %Val.addr, align 8
  store i32 %ZB, ptr %ZB.addr, align 4
  %0 = load i64, ptr %Val.addr, align 8
  %1 = load i32, ptr %ZB.addr, align 4
  %call = call noundef i64 @_ZN4llvh6detail19LeadingZerosCounterImLm8EE5countEmNS_12ZeroBehaviorE(i64 noundef %0, i32 noundef %1)
  ret i64 %call
}

; Function Attrs: mustprogress nounwind uwtable
define linkonce_odr hidden noundef i64 @_ZN4llvh13PowerOf2FloorEm(i64 noundef %A) #0 comdat {
entry:
  %retval = alloca i64, align 8
  %A.addr = alloca i64, align 8
  store i64 %A, ptr %A.addr, align 8
  %0 = load i64, ptr %A.addr, align 8
  %tobool = icmp ne i64 %0, 0
  br i1 %tobool, label %if.end, label %if.then

if.then:                                          ; preds = %entry
  store i64 0, ptr %retval, align 8
  br label %return

if.end:                                           ; preds = %entry
  %1 = load i64, ptr %A.addr, align 8
  %call = call noundef i64 @_ZN4llvh17countLeadingZerosImEEmT_NS_12ZeroBehaviorE(i64 noundef %1, i32 noundef 0)
  %sub = sub i64 63, %call
  %shl = shl i64 1, %sub
  store i64 %shl, ptr %retval, align 8
  br label %return

return:                                           ; preds = %if.end, %if.then
  %2 = load i64, ptr %retval, align 8
  ret i64 %2
}

; Function Attrs: mustprogress nounwind uwtable
define linkonce_odr hidden noundef i32 @_ZN4llvh14FoldingSetBase8capacityEv(ptr noundef nonnull align 8 dereferenceable(24) %this) #0 comdat align 2 {
entry:
  %this.addr = alloca ptr, align 8
  store ptr %this, ptr %this.addr, align 8
  %this1 = load ptr, ptr %this.addr, align 8
  %NumBuckets = getelementptr inbounds %"class.llvh::FoldingSetBase", ptr %this1, i32 0, i32 2
  %0 = load i32, ptr %NumBuckets, align 8
  %mul = mul i32 %0, 2
  ret i32 %mul
}

; Function Attrs: mustprogress nounwind uwtable
define hidden void @_ZN4llvh14FoldingSetBase7reserveEj(ptr noundef nonnull align 8 dereferenceable(24) %this, i32 noundef %EltCount) #0 align 2 {
entry:
  %this.addr = alloca ptr, align 8
  %EltCount.addr = alloca i32, align 4
  store ptr %this, ptr %this.addr, align 8
  store i32 %EltCount, ptr %EltCount.addr, align 4
  %this1 = load ptr, ptr %this.addr, align 8
  %0 = load i32, ptr %EltCount.addr, align 4
  %call = call noundef i32 @_ZN4llvh14FoldingSetBase8capacityEv(ptr noundef nonnull align 8 dereferenceable(24) %this1)
  %cmp = icmp ult i32 %0, %call
  br i1 %cmp, label %if.then, label %if.end

if.then:                                          ; preds = %entry
  br label %return

if.end:                                           ; preds = %entry
  %1 = load i32, ptr %EltCount.addr, align 4
  %conv = zext i32 %1 to i64
  %call2 = call noundef i64 @_ZN4llvh13PowerOf2FloorEm(i64 noundef %conv)
  %conv3 = trunc i64 %call2 to i32
  call void @_ZN4llvh14FoldingSetBase15GrowBucketCountEj(ptr noundef nonnull align 8 dereferenceable(24) %this1, i32 noundef %conv3)
  br label %return

return:                                           ; preds = %if.end, %if.then
  ret void
}