; Function Attrs: mustprogress nounwind uwtable
define hidden void @_ZN4llvh14FoldingSetBase7reserveEj(ptr noundef nonnull align 8 dereferenceable(24) %this, i32 noundef %EltCount) local_unnamed_addr #0 align 2 {
entry:
  %NumBuckets.i = getelementptr inbounds i8, ptr %this, i64 16
  %0 = load i32, ptr %NumBuckets.i, align 8
  %mul.i = shl i32 %0, 1
  %cmp = icmp ugt i32 %mul.i, %EltCount
  br i1 %cmp, label %return, label %if.end

if.end:                                           ; preds = %entry
  %conv = zext i32 %EltCount to i64
  %tobool.not.i = icmp eq i32 %EltCount, 0
  %1 = tail call i64 @llvm.ctlz.i64(i64 %conv, i1 true), !range !8
  %shl.i = lshr exact i64 -9223372036854775808, %1
  %2 = trunc i64 %shl.i to i32
  %conv3 = select i1 %tobool.not.i, i32 0, i32 %2
  tail call void @_ZN4llvh14FoldingSetBase15GrowBucketCountEj(ptr noundef nonnull align 8 dereferenceable(24) %this, i32 noundef %conv3)
  br label %return

return:                                           ; preds = %entry, %if.end
  ret void
}